; Function Attrs: nounwind uwtable
define dso_local void @mp_buf_append(ptr noundef %0, ptr noundef captures(none) %1, ptr noundef readonly captures(none) %2, i64 noundef %3) local_unnamed_addr #2 {
  %5 = alloca ptr, align 8
  %6 = getelementptr inbounds nuw i8, ptr %1, i64 16
  %7 = load i64, ptr %6, align 8, !tbaa !11
  %8 = icmp ult i64 %7, %3
  br i1 %8, label %9, label %._crit_edge

._crit_edge:                                      ; preds = %4
  %.pre = load ptr, ptr %1, align 8, !tbaa !15
  %.phi.trans.insert = getelementptr inbounds nuw i8, ptr %1, i64 8
  %.pre28 = load i64, ptr %.phi.trans.insert, align 8, !tbaa !16
  br label %25

9:                                                ; preds = %4
  %10 = getelementptr inbounds nuw i8, ptr %1, i64 8
  %11 = load i64, ptr %10, align 8, !tbaa !16
  %12 = add i64 %11, %3
  %13 = icmp ult i64 %12, %11
  %14 = icmp ugt i64 %12, 9223372036854775806
  %or.cond = or i1 %13, %14
  br i1 %or.cond, label %15, label %16

15:                                               ; preds = %9
  tail call void @abort() #11
  unreachable

16:                                               ; preds = %9
  %17 = shl nuw i64 %12, 1
  %18 = load ptr, ptr %1, align 8, !tbaa !15
  %19 = add i64 %11, %7
  call void @llvm.lifetime.start.p0(i64 8, ptr nonnull %5) #10
  %20 = call ptr @lua_getallocf(ptr noundef %0, ptr noundef nonnull %5) #10
  %21 = load ptr, ptr %5, align 8, !tbaa !9
  %22 = call ptr %20(ptr noundef %21, ptr noundef %18, i64 noundef %19, i64 noundef %17) #10
  call void @llvm.lifetime.end.p0(i64 8, ptr nonnull %5) #10
  store ptr %22, ptr %1, align 8, !tbaa !15
  %23 = load i64, ptr %10, align 8, !tbaa !16
  %24 = sub i64 %17, %23
  store i64 %24, ptr %6, align 8, !tbaa !11
  br label %25

25:                                               ; preds = %._crit_edge, %16
  %26 = phi i64 [ %.pre28, %._crit_edge ], [ %23, %16 ]
  %27 = phi ptr [ %.pre, %._crit_edge ], [ %22, %16 ]
  %28 = getelementptr inbounds nuw i8, ptr %1, i64 8
  %29 = getelementptr inbounds nuw i8, ptr %27, i64 %26
  call void @llvm.memcpy.p0.p0.i64(ptr align 1 %29, ptr align 1 %2, i64 %3, i1 false)
  %30 = load i64, ptr %28, align 8, !tbaa !16
  %31 = add i64 %30, %3
  store i64 %31, ptr %28, align 8, !tbaa !16
  %32 = load i64, ptr %6, align 8, !tbaa !11
  %33 = sub i64 %32, %3
  store i64 %33, ptr %6, align 8, !tbaa !11
  ret void
}